target datalayout = "e-m:e-p270:32:32-p271:32:32-p272:64:64-i64:64-i128:128-f80:128-n8:16:32:64-S128"
target triple = "x86_64-pc-linux-gnu"

; Function Attrs: nounwind sspstrong uwtable
define dso_local void @tcg_gen_vec_shl8i_i64(ptr noundef %0, ptr noundef %1, i64 noundef %2) #0 {
  %4 = alloca ptr, align 8
  %5 = alloca ptr, align 8
  %6 = alloca i64, align 8
  %7 = alloca i64, align 8
  store ptr %0, ptr %4, align 8
  store ptr %1, ptr %5, align 8
  store i64 %2, ptr %6, align 8
  call void @llvm.lifetime.start.p0(i64 8, ptr %7) #10
  %8 = load i64, ptr %6, align 8
  %9 = trunc i64 %8 to i32
  %10 = shl i32 255, %9
  %11 = trunc i32 %10 to i8
  %12 = zext i8 %11 to i64
  %13 = mul i64 72340172838076673, %12
  store i64 %13, ptr %7, align 8
  %14 = load ptr, ptr %4, align 8
  %15 = load ptr, ptr %5, align 8
  %16 = load i64, ptr %6, align 8
  call void @tcg_gen_shli_i64(ptr noundef %14, ptr noundef %15, i64 noundef %16)
  %17 = load ptr, ptr %4, align 8
  %18 = load ptr, ptr %4, align 8
  %19 = load i64, ptr %7, align 8
  call void @tcg_gen_andi_i64(ptr noundef %17, ptr noundef %18, i64 noundef %19)
  call void @llvm.lifetime.end.p0(i64 8, ptr %7) #10
  ret void
}